
main.o:     file format elf32-littlearm


Disassembly of section .text:

00000000 <sum>:
   0:	e52db004 	push	{fp}		; (str fp, [sp, #-4]!)
   4:	e28db000 	add	fp, sp, #0
   8:	e24dd00c 	sub	sp, sp, #12
   c:	e50b0008 	str	r0, [fp, #-8]
  10:	e50b100c 	str	r1, [fp, #-12]
  14:	e51b2008 	ldr	r2, [fp, #-8]
  18:	e51b300c 	ldr	r3, [fp, #-12]
  1c:	e0823003 	add	r3, r2, r3
  20:	e1a00003 	mov	r0, r3
  24:	e28bd000 	add	sp, fp, #0
  28:	e49db004 	pop	{fp}		; (ldr fp, [sp], #4)
  2c:	e12fff1e 	bx	lr

00000030 <sum1>:
  30:	e52db004 	push	{fp}		; (str fp, [sp, #-4]!)
  34:	e28db000 	add	fp, sp, #0
  38:	e24dd014 	sub	sp, sp, #20
  3c:	e50b0008 	str	r0, [fp, #-8]
  40:	e50b100c 	str	r1, [fp, #-12]
  44:	e50b2010 	str	r2, [fp, #-16]
  48:	e51b2008 	ldr	r2, [fp, #-8]
  4c:	e51b300c 	ldr	r3, [fp, #-12]
  50:	e0822003 	add	r2, r2, r3
  54:	e51b3010 	ldr	r3, [fp, #-16]
  58:	e0823003 	add	r3, r2, r3
  5c:	e1a00003 	mov	r0, r3
  60:	e28bd000 	add	sp, fp, #0
  64:	e49db004 	pop	{fp}		; (ldr fp, [sp], #4)
  68:	e12fff1e 	bx	lr

0000006c <sum2>:
  6c:	e52db004 	push	{fp}		; (str fp, [sp, #-4]!)
  70:	e28db000 	add	fp, sp, #0
  74:	e24dd014 	sub	sp, sp, #20
  78:	e50b0008 	str	r0, [fp, #-8]
  7c:	e50b100c 	str	r1, [fp, #-12]
  80:	e50b2010 	str	r2, [fp, #-16]
  84:	e50b3014 	str	r3, [fp, #-20]	; 0xffffffec
  88:	e51b2008 	ldr	r2, [fp, #-8]
  8c:	e51b300c 	ldr	r3, [fp, #-12]
  90:	e0822003 	add	r2, r2, r3
  94:	e51b3010 	ldr	r3, [fp, #-16]
  98:	e0822003 	add	r2, r2, r3
  9c:	e51b3014 	ldr	r3, [fp, #-20]	; 0xffffffec
  a0:	e0823003 	add	r3, r2, r3
  a4:	e1a00003 	mov	r0, r3
  a8:	e28bd000 	add	sp, fp, #0
  ac:	e49db004 	pop	{fp}		; (ldr fp, [sp], #4)
  b0:	e12fff1e 	bx	lr

000000b4 <do_sum>:
  b4:	e92d4800 	push	{fp, lr}
  b8:	e28db004 	add	fp, sp, #4
  bc:	e24dd010 	sub	sp, sp, #16
  c0:	e50b0010 	str	r0, [fp, #-16]
  c4:	e50b1014 	str	r1, [fp, #-20]	; 0xffffffec
  c8:	e51b3010 	ldr	r3, [fp, #-16]
  cc:	e5932000 	ldr	r2, [r3]
  d0:	e51b3014 	ldr	r3, [fp, #-20]	; 0xffffffec
  d4:	e5933000 	ldr	r3, [r3]
  d8:	e1a01003 	mov	r1, r3
  dc:	e1a00002 	mov	r0, r2
  e0:	ebfffffe 	bl	0 <sum>
  e4:	e50b0008 	str	r0, [fp, #-8]
  e8:	e1a00000 	nop			; (mov r0, r0)
  ec:	e24bd004 	sub	sp, fp, #4
  f0:	e8bd4800 	pop	{fp, lr}
  f4:	e12fff1e 	bx	lr
